; ModuleID = '28/201.c'
source_filename = "28/201.c"
target datalayout = "e-m:e-p270:32:32-p271:32:32-p272:64:64-i64:64-f80:128-n8:16:32:64-S128"
target triple = "x86_64-pc-linux-gnu"

@.str = private unnamed_addr constant [3 x i8] c"%d\00", align 1
@.str.1 = private unnamed_addr constant [4 x i8] c",%d\00", align 1

; Function Attrs: noinline nounwind uwtable
define dso_local void @main() #0 {
  %1 = alloca i32, align 4
  %2 = alloca i32, align 4
  %3 = alloca i32, align 4
  %4 = alloca i8, align 1
  %5 = alloca [300 x i32], align 16
  store i32 0, i32* %2, align 4
  %6 = call i32 @getchar()
  %7 = trunc i32 %6 to i8
  store i8 %7, i8* %4, align 1
  br label %8

8:                                                ; preds = %50, %0
  %9 = load i8, i8* %4, align 1
  %10 = sext i8 %9 to i32
  %11 = icmp ne i32 %10, 10
  br i1 %11, label %12, label %51

12:                                               ; preds = %8
  store i32 0, i32* %1, align 4
  br label %13

13:                                               ; preds = %26, %12
  %14 = load i8, i8* %4, align 1
  %15 = sext i8 %14 to i32
  %16 = icmp ne i32 %15, 32
  br i1 %16, label %17, label %27

17:                                               ; preds = %13
  %18 = load i32, i32* %1, align 4
  %19 = add nsw i32 %18, 1
  store i32 %19, i32* %1, align 4
  %20 = call i32 @getchar()
  %21 = trunc i32 %20 to i8
  store i8 %21, i8* %4, align 1
  %22 = load i8, i8* %4, align 1
  %23 = sext i8 %22 to i32
  %24 = icmp eq i32 %23, 10
  br i1 %24, label %25, label %26

25:                                               ; preds = %17
  br label %27

26:                                               ; preds = %17
  br label %13

27:                                               ; preds = %25, %13
  %28 = load i32, i32* %1, align 4
  %29 = load i32, i32* %2, align 4
  %30 = sext i32 %29 to i64
  %31 = getelementptr inbounds [300 x i32], [300 x i32]* %5, i64 0, i64 %30
  store i32 %28, i32* %31, align 4
  %32 = load i32, i32* %2, align 4
  %33 = sext i32 %32 to i64
  %34 = getelementptr inbounds [300 x i32], [300 x i32]* %5, i64 0, i64 %33
  %35 = load i32, i32* %34, align 4
  %36 = icmp eq i32 %35, 0
  br i1 %36, label %37, label %40

37:                                               ; preds = %27
  %38 = load i32, i32* %2, align 4
  %39 = add nsw i32 %38, -1
  store i32 %39, i32* %2, align 4
  br label %40

40:                                               ; preds = %37, %27
  %41 = load i8, i8* %4, align 1
  %42 = sext i8 %41 to i32
  %43 = icmp eq i32 %42, 10
  br i1 %43, label %44, label %45

44:                                               ; preds = %40
  br label %51

45:                                               ; preds = %40
  %46 = load i32, i32* %2, align 4
  %47 = add nsw i32 %46, 1
  store i32 %47, i32* %2, align 4
  %48 = call i32 @getchar()
  %49 = trunc i32 %48 to i8
  store i8 %49, i8* %4, align 1
  br label %50

50:                                               ; preds = %45
  br label %8

51:                                               ; preds = %44, %8
  %52 = load i32, i32* %2, align 4
  store i32 %52, i32* %3, align 4
  %53 = getelementptr inbounds [300 x i32], [300 x i32]* %5, i64 0, i64 0
  %54 = load i32, i32* %53, align 16
  %55 = call i32 (i8*, ...) @printf(i8* getelementptr inbounds ([3 x i8], [3 x i8]* @.str, i64 0, i64 0), i32 %54)
  store i32 1, i32* %2, align 4
  br label %56

56:                                               ; preds = %66, %51
  %57 = load i32, i32* %2, align 4
  %58 = load i32, i32* %3, align 4
  %59 = icmp sle i32 %57, %58
  br i1 %59, label %60, label %69

60:                                               ; preds = %56
  %61 = load i32, i32* %2, align 4
  %62 = sext i32 %61 to i64
  %63 = getelementptr inbounds [300 x i32], [300 x i32]* %5, i64 0, i64 %62
  %64 = load i32, i32* %63, align 4
  %65 = call i32 (i8*, ...) @printf(i8* getelementptr inbounds ([4 x i8], [4 x i8]* @.str.1, i64 0, i64 0), i32 %64)
  br label %66

66:                                               ; preds = %60
  %67 = load i32, i32* %2, align 4
  %68 = add nsw i32 %67, 1
  store i32 %68, i32* %2, align 4
  br label %56

69:                                               ; preds = %56
  ret void
}

declare dso_local i32 @getchar() #1

declare dso_local i32 @printf(i8*, ...) #1


!llvm.module.flags = !{!0}
!llvm.ident = !{!1}

!0 = !{i32 1, !"wchar_size", i32 4}
!1 = !{!"clang version 10.0.0-4ubuntu1 "}
